target datalayout = "e-m:e-p270:32:32-p271:32:32-p272:64:64-i64:64-i128:128-f80:128-n8:16:32:64-S128"
target triple = "x86_64-pc-linux-gnu"

%struct.hwloc_infos_s = type { ptr, i32, i32 }
%struct.hwloc_obj = type { i32, ptr, i32, ptr, i64, ptr, i32, i32, ptr, ptr, ptr, i32, ptr, ptr, i32, ptr, ptr, ptr, i32, i32, ptr, i32, ptr, i32, ptr, ptr, ptr, ptr, ptr, %struct.hwloc_infos_s, ptr, i64 }
%struct.procinfo = type { i32, i32, [8 x i32], ptr, i32, i32, ptr, [13 x i8], [49 x i8], i32, i32, i32, i32, i32 }
%struct.hwloc_group_attr_s = type { i32, i32, i32, i8 }

@.str.64 = private unnamed_addr constant [10 x i8] c"x86:group\00", align 1

; Function Attrs: nounwind uwtable
define internal void @hwloc_x86_add_groups(ptr noundef %0, ptr noundef %1, i32 noundef %2, ptr noundef %3, i32 noundef %4, ptr noundef %5, i32 noundef %6, i32 noundef %7) #0 {
  %9 = alloca ptr, align 8
  %10 = alloca ptr, align 8
  %11 = alloca i32, align 4
  %12 = alloca ptr, align 8
  %13 = alloca i32, align 4
  %14 = alloca ptr, align 8
  %15 = alloca i32, align 4
  %16 = alloca i32, align 4
  %17 = alloca ptr, align 8
  %18 = alloca ptr, align 8
  %19 = alloca i32, align 4
  %20 = alloca i32, align 4
  %21 = alloca i32, align 4
  %22 = alloca i32, align 4
  %23 = alloca i32, align 4
  store ptr %0, ptr %9, align 8, !tbaa !3
  store ptr %1, ptr %10, align 8, !tbaa !86
  store i32 %2, ptr %11, align 4, !tbaa !10
  store ptr %3, ptr %12, align 8, !tbaa !35
  store i32 %4, ptr %13, align 4, !tbaa !10
  store ptr %5, ptr %14, align 8, !tbaa !34
  store i32 %6, ptr %15, align 4, !tbaa !10
  store i32 %7, ptr %16, align 4, !tbaa !10
  call void @llvm.lifetime.start.p0(i64 8, ptr %17) #15
  call void @llvm.lifetime.start.p0(i64 8, ptr %18) #15
  call void @llvm.lifetime.start.p0(i64 4, ptr %19) #15
  call void @llvm.lifetime.start.p0(i64 4, ptr %20) #15
  br label %24

24:                                               ; preds = %136, %134, %8
  %25 = load ptr, ptr %12, align 8, !tbaa !35
  %26 = call i32 @hwloc_bitmap_first(ptr noundef %25) #16
  store i32 %26, ptr %19, align 4, !tbaa !10
  %27 = icmp ne i32 %26, -1
  br i1 %27, label %28, label %137

28:                                               ; preds = %24
  call void @llvm.lifetime.start.p0(i64 4, ptr %21) #15
  %29 = load ptr, ptr %10, align 8, !tbaa !86
  %30 = load i32, ptr %19, align 4, !tbaa !10
  %31 = zext i32 %30 to i64
  %32 = getelementptr inbounds nuw %struct.procinfo, ptr %29, i64 %31
  %33 = getelementptr inbounds nuw %struct.procinfo, ptr %32, i32 0, i32 2
  %34 = getelementptr inbounds [8 x i32], ptr %33, i64 0, i64 0
  %35 = load i32, ptr %34, align 8, !tbaa !10
  store i32 %35, ptr %21, align 4, !tbaa !10
  call void @llvm.lifetime.start.p0(i64 4, ptr %22) #15
  %36 = load ptr, ptr %10, align 8, !tbaa !86
  %37 = load i32, ptr %19, align 4, !tbaa !10
  %38 = zext i32 %37 to i64
  %39 = getelementptr inbounds nuw %struct.procinfo, ptr %36, i64 %38
  %40 = getelementptr inbounds nuw %struct.procinfo, ptr %39, i32 0, i32 2
  %41 = load i32, ptr %13, align 4, !tbaa !10
  %42 = zext i32 %41 to i64
  %43 = getelementptr inbounds nuw [8 x i32], ptr %40, i64 0, i64 %42
  %44 = load i32, ptr %43, align 4, !tbaa !10
  store i32 %44, ptr %22, align 4, !tbaa !10
  %45 = load i32, ptr %22, align 4, !tbaa !10
  %46 = icmp eq i32 %45, -1
  br i1 %46, label %47, label %51

47:                                               ; preds = %28
  %48 = load ptr, ptr %12, align 8, !tbaa !35
  %49 = load i32, ptr %19, align 4, !tbaa !10
  %50 = call i32 @hwloc_bitmap_clr(ptr noundef %48, i32 noundef %49)
  store i32 2, ptr %23, align 4
  br label %134, !llvm.loop !183

51:                                               ; preds = %28
  %52 = call noalias ptr @hwloc_bitmap_alloc()
  store ptr %52, ptr %17, align 8, !tbaa !35
  %53 = load i32, ptr %19, align 4, !tbaa !10
  store i32 %53, ptr %20, align 4, !tbaa !10
  br label %54

54:                                               ; preds = %103, %51
  %55 = load i32, ptr %20, align 4, !tbaa !10
  %56 = load i32, ptr %11, align 4, !tbaa !10
  %57 = icmp ult i32 %55, %56
  br i1 %57, label %58, label %106

58:                                               ; preds = %54
  %59 = load ptr, ptr %10, align 8, !tbaa !86
  %60 = load i32, ptr %20, align 4, !tbaa !10
  %61 = zext i32 %60 to i64
  %62 = getelementptr inbounds nuw %struct.procinfo, ptr %59, i64 %61
  %63 = getelementptr inbounds nuw %struct.procinfo, ptr %62, i32 0, i32 2
  %64 = load i32, ptr %13, align 4, !tbaa !10
  %65 = zext i32 %64 to i64
  %66 = getelementptr inbounds nuw [8 x i32], ptr %63, i64 0, i64 %65
  %67 = load i32, ptr %66, align 4, !tbaa !10
  %68 = icmp eq i32 %67, -1
  br i1 %68, label %69, label %73

69:                                               ; preds = %58
  %70 = load ptr, ptr %12, align 8, !tbaa !35
  %71 = load i32, ptr %20, align 4, !tbaa !10
  %72 = call i32 @hwloc_bitmap_clr(ptr noundef %70, i32 noundef %71)
  br label %103

73:                                               ; preds = %58
  %74 = load ptr, ptr %10, align 8, !tbaa !86
  %75 = load i32, ptr %20, align 4, !tbaa !10
  %76 = zext i32 %75 to i64
  %77 = getelementptr inbounds nuw %struct.procinfo, ptr %74, i64 %76
  %78 = getelementptr inbounds nuw %struct.procinfo, ptr %77, i32 0, i32 2
  %79 = getelementptr inbounds [8 x i32], ptr %78, i64 0, i64 0
  %80 = load i32, ptr %79, align 8, !tbaa !10
  %81 = load i32, ptr %21, align 4, !tbaa !10
  %82 = icmp eq i32 %80, %81
  br i1 %82, label %83, label %102

83:                                               ; preds = %73
  %84 = load ptr, ptr %10, align 8, !tbaa !86
  %85 = load i32, ptr %20, align 4, !tbaa !10
  %86 = zext i32 %85 to i64
  %87 = getelementptr inbounds nuw %struct.procinfo, ptr %84, i64 %86
  %88 = getelementptr inbounds nuw %struct.procinfo, ptr %87, i32 0, i32 2
  %89 = load i32, ptr %13, align 4, !tbaa !10
  %90 = zext i32 %89 to i64
  %91 = getelementptr inbounds nuw [8 x i32], ptr %88, i64 0, i64 %90
  %92 = load i32, ptr %91, align 4, !tbaa !10
  %93 = load i32, ptr %22, align 4, !tbaa !10
  %94 = icmp eq i32 %92, %93
  br i1 %94, label %95, label %102

95:                                               ; preds = %83
  %96 = load ptr, ptr %17, align 8, !tbaa !35
  %97 = load i32, ptr %20, align 4, !tbaa !10
  %98 = call i32 @hwloc_bitmap_set(ptr noundef %96, i32 noundef %97)
  %99 = load ptr, ptr %12, align 8, !tbaa !35
  %100 = load i32, ptr %20, align 4, !tbaa !10
  %101 = call i32 @hwloc_bitmap_clr(ptr noundef %99, i32 noundef %100)
  br label %102

102:                                              ; preds = %95, %83, %73
  br label %103

103:                                              ; preds = %102, %69
  %104 = load i32, ptr %20, align 4, !tbaa !10
  %105 = add i32 %104, 1
  store i32 %105, ptr %20, align 4, !tbaa !10
  br label %54, !llvm.loop !184

106:                                              ; preds = %54
  %107 = load ptr, ptr %9, align 8, !tbaa !3
  %108 = load i32, ptr %22, align 4, !tbaa !10
  %109 = call ptr @hwloc_alloc_setup_object(ptr noundef %107, i32 noundef 13, i32 noundef %108)
  store ptr %109, ptr %18, align 8, !tbaa !72
  %110 = load ptr, ptr %17, align 8, !tbaa !35
  %111 = load ptr, ptr %18, align 8, !tbaa !72
  %112 = getelementptr inbounds nuw %struct.hwloc_obj, ptr %111, i32 0, i32 25
  store ptr %110, ptr %112, align 8, !tbaa !74
  %113 = load ptr, ptr %14, align 8, !tbaa !34
  %114 = call noalias ptr @strdup(ptr noundef %113) #15
  %115 = load ptr, ptr %18, align 8, !tbaa !72
  %116 = getelementptr inbounds nuw %struct.hwloc_obj, ptr %115, i32 0, i32 1
  store ptr %114, ptr %116, align 8, !tbaa !185
  %117 = load i32, ptr %15, align 4, !tbaa !10
  %118 = load ptr, ptr %18, align 8, !tbaa !72
  %119 = getelementptr inbounds nuw %struct.hwloc_obj, ptr %118, i32 0, i32 5
  %120 = load ptr, ptr %119, align 8, !tbaa !142
  %121 = getelementptr inbounds nuw %struct.hwloc_group_attr_s, ptr %120, i32 0, i32 1
  store i32 %117, ptr %121, align 4, !tbaa !83
  %122 = load i32, ptr %16, align 4, !tbaa !10
  %123 = trunc i32 %122 to i8
  %124 = load ptr, ptr %18, align 8, !tbaa !72
  %125 = getelementptr inbounds nuw %struct.hwloc_obj, ptr %124, i32 0, i32 5
  %126 = load ptr, ptr %125, align 8, !tbaa !142
  %127 = getelementptr inbounds nuw %struct.hwloc_group_attr_s, ptr %126, i32 0, i32 3
  store i8 %123, ptr %127, align 4, !tbaa !83
  br label %128

128:                                              ; preds = %106
  br label %129

129:                                              ; preds = %128
  br label %130

130:                                              ; preds = %129
  %131 = load ptr, ptr %9, align 8, !tbaa !3
  %132 = load ptr, ptr %18, align 8, !tbaa !72
  %133 = call ptr @hwloc__insert_object_by_cpuset(ptr noundef %131, ptr noundef null, ptr noundef %132, ptr noundef @.str.64)
  store i32 0, ptr %23, align 4
  br label %134

134:                                              ; preds = %130, %47
  call void @llvm.lifetime.end.p0(i64 4, ptr %22) #15
  call void @llvm.lifetime.end.p0(i64 4, ptr %21) #15
  %135 = load i32, ptr %23, align 4
  switch i32 %135, label %138 [
    i32 0, label %136
    i32 2, label %24
  ]

136:                                              ; preds = %134
  br label %24, !llvm.loop !183

137:                                              ; preds = %24
  call void @llvm.lifetime.end.p0(i64 4, ptr %20) #15
  call void @llvm.lifetime.end.p0(i64 4, ptr %19) #15
  call void @llvm.lifetime.end.p0(i64 8, ptr %18) #15
  call void @llvm.lifetime.end.p0(i64 8, ptr %17) #15
  ret void

138:                                              ; preds = %134
  unreachable
}