; Function Attrs: nounwind uwtable
define internal fastcc void @hwloc_x86_add_groups(ptr noundef %0, ptr noundef nonnull readonly captures(none) %1, i32 noundef %2, ptr noundef %3, i32 noundef range(i32 3, 8) %4, ptr noundef readonly captures(none) %5, i32 noundef range(i32 102, 122) %6) unnamed_addr #0 {
  %8 = tail call i32 @hwloc_bitmap_first(ptr noundef %3) #23
  %.not44 = icmp eq i32 %8, -1
  br i1 %.not44, label %._crit_edge47, label %.lr.ph46

.lr.ph46:                                         ; preds = %7
  %9 = zext nneg i32 %4 to i64
  br label %10

10:                                               ; preds = %.lr.ph46, %48
  %11 = phi i32 [ %8, %.lr.ph46 ], [ %49, %48 ]
  %12 = zext i32 %11 to i64
  %13 = getelementptr inbounds nuw %struct.procinfo, ptr %1, i64 %12, i32 2
  %14 = load i32, ptr %13, align 8, !tbaa !67
  %15 = getelementptr inbounds nuw %struct.procinfo, ptr %1, i64 %12, i32 2, i64 %9
  %16 = load i32, ptr %15, align 4, !tbaa !67
  %17 = icmp eq i32 %16, -1
  br i1 %17, label %18, label %20

18:                                               ; preds = %10
  %19 = tail call i32 @hwloc_bitmap_clr(ptr noundef %3, i32 noundef %11) #22
  br label %48, !llvm.loop !164

20:                                               ; preds = %10
  %21 = tail call noalias ptr @hwloc_bitmap_alloc() #22
  %22 = icmp ult i32 %11, %2
  br i1 %22, label %.lr.ph, label %._crit_edge

.lr.ph:                                           ; preds = %20, %37
  %indvars.iv = phi i64 [ %indvars.iv.next, %37 ], [ %12, %20 ]
  %23 = getelementptr inbounds nuw %struct.procinfo, ptr %1, i64 %indvars.iv, i32 2, i64 %9
  %24 = load i32, ptr %23, align 4, !tbaa !67
  %25 = icmp eq i32 %24, -1
  br i1 %25, label %26, label %28

26:                                               ; preds = %.lr.ph
  %27 = trunc nuw i64 %indvars.iv to i32
  br label %.sink.split

28:                                               ; preds = %.lr.ph
  %29 = getelementptr inbounds nuw %struct.procinfo, ptr %1, i64 %indvars.iv, i32 2
  %30 = load i32, ptr %29, align 8, !tbaa !67
  %31 = icmp eq i32 %30, %14
  %32 = icmp eq i32 %24, %16
  %or.cond = and i1 %32, %31
  br i1 %or.cond, label %33, label %37

33:                                               ; preds = %28
  %34 = trunc nuw i64 %indvars.iv to i32
  %35 = tail call i32 @hwloc_bitmap_set(ptr noundef %21, i32 noundef %34) #22
  br label %.sink.split

.sink.split:                                      ; preds = %26, %33
  %.sink = phi i32 [ %34, %33 ], [ %27, %26 ]
  %36 = tail call i32 @hwloc_bitmap_clr(ptr noundef %3, i32 noundef %.sink) #22
  br label %37

37:                                               ; preds = %.sink.split, %28
  %indvars.iv.next = add nuw nsw i64 %indvars.iv, 1
  %lftr.wideiv = trunc i64 %indvars.iv.next to i32
  %exitcond.not = icmp eq i32 %2, %lftr.wideiv
  br i1 %exitcond.not, label %._crit_edge, label %.lr.ph, !llvm.loop !165

._crit_edge:                                      ; preds = %37, %20
  %38 = tail call ptr @hwloc_alloc_setup_object(ptr noundef %0, i32 noundef 13, i32 noundef %16) #22
  %39 = getelementptr inbounds nuw i8, ptr %38, i64 184
  store ptr %21, ptr %39, align 8, !tbaa !62
  %40 = tail call noalias ptr @strdup(ptr noundef %5) #22
  %41 = getelementptr inbounds nuw i8, ptr %38, i64 8
  store ptr %40, ptr %41, align 8, !tbaa !166
  %42 = getelementptr inbounds nuw i8, ptr %38, i64 40
  %43 = load ptr, ptr %42, align 8, !tbaa !141
  %44 = getelementptr inbounds nuw i8, ptr %43, i64 4
  store i32 %6, ptr %44, align 4, !tbaa !25
  %45 = load ptr, ptr %42, align 8, !tbaa !141
  %46 = getelementptr inbounds nuw i8, ptr %45, i64 12
  store i8 0, ptr %46, align 4, !tbaa !25
  %47 = tail call ptr @hwloc__insert_object_by_cpuset(ptr noundef %0, ptr noundef null, ptr noundef %38, ptr noundef nonnull @.str.64) #22
  br label %48

48:                                               ; preds = %._crit_edge, %18
  %49 = tail call i32 @hwloc_bitmap_first(ptr noundef %3) #23
  %.not = icmp eq i32 %49, -1
  br i1 %.not, label %._crit_edge47, label %10

._crit_edge47:                                    ; preds = %48, %7
  ret void
}